target datalayout = "e-m:e-p270:32:32-p271:32:32-p272:64:64-i64:64-i128:128-f80:128-n8:16:32:64-S128"
target triple = "x86_64-pc-linux-gnu"

%"class.clang::ASTDeclReader" = type <{ ptr, %"class.clang::ASTDeclMerger", ptr, %"struct.clang::ASTReader::RecordLocation", %"class.clang::GlobalDeclID", %"class.clang::SourceLocation", [4 x i8], i64, i32, [4 x i8], %"class.clang::GlobalDeclID", ptr, i8, [7 x i8] }>
%"class.clang::ASTDeclMerger" = type { ptr }
%"struct.clang::ASTReader::RecordLocation" = type { ptr, i64 }
%"class.clang::SourceLocation" = type { i32 }
%"class.clang::GlobalDeclID" = type { %"class.clang::DeclIDBase" }
%"class.clang::DeclIDBase" = type { i64 }
%"class.llvm::SmallVectorImpl" = type { %"class.llvm::SmallVectorTemplateBase" }
%"class.llvm::SmallVectorTemplateBase" = type { %"class.llvm::SmallVectorTemplateCommon" }
%"class.llvm::SmallVectorTemplateCommon" = type { %"class.llvm::SmallVectorBase" }
%"class.llvm::SmallVectorBase" = type { ptr, i32, i32 }
%"class.llvm::SmallVector.44" = type { %"class.llvm::SmallVectorImpl", %"struct.llvm::SmallVectorStorage.45" }
%"struct.llvm::SmallVectorStorage.45" = type { [512 x i8] }
%"class.clang::CXXMethodDecl" = type { %"class.clang::FunctionDecl" }
%"class.clang::FunctionDecl" = type { %"class.clang::DeclaratorDecl.base", %"class.clang::DeclContext", %"class.clang::Redeclarable", ptr, %union.anon.846, i32, %"class.clang::SourceLocation", %"class.clang::SourceLocation", [4 x i8], %"class.llvm::PointerUnion.847", %"class.clang::DeclarationNameLoc" }
%"class.clang::DeclaratorDecl.base" = type <{ %"class.clang::ValueDecl", %"class.llvm::PointerUnion.835", %"class.clang::SourceLocation" }>
%"class.clang::ValueDecl" = type { %"class.clang::NamedDecl", %"class.clang::QualType" }
%"class.clang::NamedDecl" = type { %"class.clang::Decl.base", %"class.clang::DeclarationName" }
%"class.clang::Decl.base" = type <{ ptr, %"class.llvm::PointerIntPair.829", %"class.llvm::PointerUnion", %"class.clang::SourceLocation", i32, i8 }>
%"class.llvm::PointerIntPair.829" = type { %"struct.llvm::detail::PunnedPointer.830" }
%"struct.llvm::detail::PunnedPointer.830" = type { [8 x i8] }
%"class.llvm::PointerUnion" = type { %"class.llvm::pointer_union_detail::PointerUnionMembers" }
%"class.llvm::pointer_union_detail::PointerUnionMembers" = type { %"class.llvm::pointer_union_detail::PointerUnionMembers.831" }
%"class.llvm::pointer_union_detail::PointerUnionMembers.831" = type { %"class.llvm::pointer_union_detail::PointerUnionMembers.832" }
%"class.llvm::pointer_union_detail::PointerUnionMembers.832" = type { %"class.llvm::PointerIntPair.833" }
%"class.llvm::PointerIntPair.833" = type { %"struct.llvm::detail::PunnedPointer.834" }
%"struct.llvm::detail::PunnedPointer.834" = type { [8 x i8] }
%"class.clang::DeclarationName" = type { i64 }
%"class.clang::QualType" = type { %"class.llvm::PointerIntPair.596" }
%"class.llvm::PointerIntPair.596" = type { %"struct.llvm::detail::PunnedPointer.597" }
%"struct.llvm::detail::PunnedPointer.597" = type { [8 x i8] }
%"class.llvm::PointerUnion.835" = type { %"class.llvm::pointer_union_detail::PointerUnionMembers.836" }
%"class.llvm::pointer_union_detail::PointerUnionMembers.836" = type { %"class.llvm::pointer_union_detail::PointerUnionMembers.837" }
%"class.llvm::pointer_union_detail::PointerUnionMembers.837" = type { %"class.llvm::pointer_union_detail::PointerUnionMembers.838" }
%"class.llvm::pointer_union_detail::PointerUnionMembers.838" = type { %"class.llvm::PointerIntPair.839" }
%"class.llvm::PointerIntPair.839" = type { %"struct.llvm::detail::PunnedPointer.834" }
%"class.clang::DeclContext" = type { ptr, %union.anon.840, ptr, ptr }
%union.anon.840 = type { %"class.clang::DeclContext::RecordDeclBitfields" }
%"class.clang::DeclContext::RecordDeclBitfields" = type { i64 }
%"class.clang::Redeclarable" = type { %"class.clang::Redeclarable<clang::FunctionDecl>::DeclLink", ptr }
%"class.clang::Redeclarable<clang::FunctionDecl>::DeclLink" = type { %"class.llvm::PointerUnion.841" }
%"class.llvm::PointerUnion.841" = type { %"class.llvm::pointer_union_detail::PointerUnionMembers.842" }
%"class.llvm::pointer_union_detail::PointerUnionMembers.842" = type { %"class.llvm::pointer_union_detail::PointerUnionMembers.843" }
%"class.llvm::pointer_union_detail::PointerUnionMembers.843" = type { %"class.llvm::pointer_union_detail::PointerUnionMembers.844" }
%"class.llvm::pointer_union_detail::PointerUnionMembers.844" = type { %"class.llvm::PointerIntPair.845" }
%"class.llvm::PointerIntPair.845" = type { %"struct.llvm::detail::PunnedPointer.834" }
%union.anon.846 = type { %"struct.clang::LazyOffsetPtr" }
%"struct.clang::LazyOffsetPtr" = type { i64 }
%"class.llvm::PointerUnion.847" = type { %"class.llvm::pointer_union_detail::PointerUnionMembers.848" }
%"class.llvm::pointer_union_detail::PointerUnionMembers.848" = type { %"class.llvm::pointer_union_detail::PointerUnionMembers.849" }
%"class.llvm::pointer_union_detail::PointerUnionMembers.849" = type { %"class.llvm::pointer_union_detail::PointerUnionMembers.850" }
%"class.llvm::pointer_union_detail::PointerUnionMembers.850" = type { %"class.llvm::pointer_union_detail::PointerUnionMembers.851" }
%"class.llvm::pointer_union_detail::PointerUnionMembers.851" = type { %"class.llvm::pointer_union_detail::PointerUnionMembers.852" }
%"class.llvm::pointer_union_detail::PointerUnionMembers.852" = type { %"class.llvm::PointerIntPair.853" }
%"class.llvm::PointerIntPair.853" = type { %"struct.llvm::detail::PunnedPointer.834" }
%"class.clang::DeclarationNameLoc" = type { %union.anon.854 }
%union.anon.854 = type { %"struct.clang::DeclarationNameLoc::NT" }
%"struct.clang::DeclarationNameLoc::NT" = type { ptr }
%"class.clang::ASTRecordReader" = type { %"class.clang::serialization::DataStreamBasicReader", ptr, ptr, i32, %"class.llvm::SmallVector.44" }
%"class.clang::serialization::DataStreamBasicReader" = type { %"class.clang::serialization::BasicReaderBase" }
%"class.clang::serialization::BasicReaderBase" = type { ptr }
%"class.clang::ExplicitSpecifier" = type { %"class.llvm::PointerIntPair.1183" }
%"class.llvm::PointerIntPair.1183" = type { %"struct.llvm::detail::PunnedPointer.1184" }
%"struct.llvm::detail::PunnedPointer.1184" = type { [8 x i8] }
%"class.clang::CXXConversionDecl" = type { %"class.clang::CXXMethodDecl", %"class.clang::ExplicitSpecifier" }

; Function Attrs: mustprogress nounwind uwtable
define linkonce_odr hidden noundef ptr @_ZN4llvm21PointerLikeTypeTraitsIPN5clang4ExprEE16getAsVoidPointerES3_(ptr noundef %0) #0 comdat align 2 {
  %2 = alloca ptr, align 8
  store ptr %0, ptr %2, align 8
  %3 = load ptr, ptr %2, align 8
  ret ptr %3
}

; Function Attrs: mustprogress nounwind uwtable
define linkonce_odr hidden noundef i64 @_ZN4llvm18PointerIntPairInfoIPN5clang4ExprELj2ENS_21PointerLikeTypeTraitsIS3_EEE9updateIntEll(i64 noundef %0, i64 noundef %1) #0 comdat align 2 {
  %3 = alloca i64, align 8
  %4 = alloca i64, align 8
  %5 = alloca i64, align 8
  store i64 %0, ptr %3, align 8
  store i64 %1, ptr %4, align 8
  %6 = load i64, ptr %4, align 8
  store i64 %6, ptr %5, align 8
  %7 = load i64, ptr %3, align 8
  %8 = and i64 %7, -4
  %9 = load i64, ptr %5, align 8
  %10 = shl i64 %9, 0
  %11 = or i64 %8, %10
  ret i64 %11
}

; Function Attrs: mustprogress nounwind uwtable
define linkonce_odr hidden noundef i64 @_ZN4llvm18PointerIntPairInfoIPN5clang4ExprELj2ENS_21PointerLikeTypeTraitsIS3_EEE13updatePointerElS3_(i64 noundef %0, ptr noundef %1) #0 comdat align 2 {
  %3 = alloca i64, align 8
  %4 = alloca ptr, align 8
  %5 = alloca i64, align 8
  store i64 %0, ptr %3, align 8
  store ptr %1, ptr %4, align 8
  %6 = load ptr, ptr %4, align 8
  %7 = call noundef ptr @_ZN4llvm21PointerLikeTypeTraitsIPN5clang4ExprEE16getAsVoidPointerES3_(ptr noundef %6)
  %8 = ptrtoint ptr %7 to i64
  store i64 %8, ptr %5, align 8
  %9 = load i64, ptr %5, align 8
  %10 = load i64, ptr %3, align 8
  %11 = and i64 %10, 3
  %12 = or i64 %9, %11
  ret i64 %12
}

; Function Attrs: mustprogress nounwind uwtable
define linkonce_odr hidden noundef nonnull align 8 dereferenceable(8) ptr @_ZN4llvm6detail13PunnedPointerIPN5clang4ExprEEaSEl(ptr noundef nonnull align 8 dereferenceable(8) %0, i64 noundef %1) #0 comdat align 2 {
  %3 = alloca ptr, align 8
  %4 = alloca i64, align 8
  store ptr %0, ptr %3, align 8
  store i64 %1, ptr %4, align 8
  %5 = load ptr, ptr %3, align 8
  %6 = getelementptr inbounds nuw %"struct.llvm::detail::PunnedPointer.1184", ptr %5, i32 0, i32 0
  %7 = getelementptr inbounds [8 x i8], ptr %6, i64 0, i64 0
  call void @llvm.memcpy.p0.p0.i64(ptr align 8 %7, ptr align 8 %4, i64 8, i1 false)
  ret ptr %5
}

; Function Attrs: mustprogress nounwind uwtable
define linkonce_odr hidden void @_ZNR4llvm14PointerIntPairIPN5clang4ExprELj2ENS1_16ExplicitSpecKindENS_21PointerLikeTypeTraitsIS3_EENS_18PointerIntPairInfoIS3_Lj2ES6_EEE16setPointerAndIntES3_S4_(ptr noundef nonnull align 8 dereferenceable(8) %0, ptr noundef %1, i32 noundef %2) #0 comdat align 2 {
  %4 = alloca ptr, align 8
  %5 = alloca ptr, align 8
  %6 = alloca i32, align 4
  store ptr %0, ptr %4, align 8
  store ptr %1, ptr %5, align 8
  store i32 %2, ptr %6, align 4
  %7 = load ptr, ptr %4, align 8
  %8 = load ptr, ptr %5, align 8
  %9 = call noundef i64 @_ZN4llvm18PointerIntPairInfoIPN5clang4ExprELj2ENS_21PointerLikeTypeTraitsIS3_EEE13updatePointerElS3_(i64 noundef 0, ptr noundef %8)
  %10 = load i32, ptr %6, align 4
  %11 = zext i32 %10 to i64
  %12 = call noundef i64 @_ZN4llvm18PointerIntPairInfoIPN5clang4ExprELj2ENS_21PointerLikeTypeTraitsIS3_EEE9updateIntEll(i64 noundef %9, i64 noundef %11)
  %13 = getelementptr inbounds nuw %"class.llvm::PointerIntPair.1183", ptr %7, i32 0, i32 0
  %14 = call noundef nonnull align 8 dereferenceable(8) ptr @_ZN4llvm6detail13PunnedPointerIPN5clang4ExprEEaSEl(ptr noundef nonnull align 8 dereferenceable(8) %13, i64 noundef %12)
  ret void
}

; Function Attrs: mustprogress nounwind uwtable
define linkonce_odr hidden void @_ZN4llvm6detail13PunnedPointerIPN5clang4ExprEEC2El(ptr noundef nonnull align 8 dereferenceable(8) %0, i64 noundef %1) unnamed_addr #0 comdat align 2 {
  %3 = alloca ptr, align 8
  %4 = alloca i64, align 8
  store ptr %0, ptr %3, align 8
  store i64 %1, ptr %4, align 8
  %5 = load ptr, ptr %3, align 8
  %6 = load i64, ptr %4, align 8
  %7 = call noundef nonnull align 8 dereferenceable(8) ptr @_ZN4llvm6detail13PunnedPointerIPN5clang4ExprEEaSEl(ptr noundef nonnull align 8 dereferenceable(8) %5, i64 noundef %6)
  ret void
}

; Function Attrs: mustprogress nounwind uwtable
define linkonce_odr hidden noundef ptr @_ZN4llvm25SmallVectorTemplateCommonImvE5beginEv(ptr noundef nonnull align 8 dereferenceable(16) %0) #0 comdat align 2 {
  %2 = alloca ptr, align 8
  store ptr %0, ptr %2, align 8
  %3 = load ptr, ptr %2, align 8
  %4 = getelementptr inbounds nuw %"class.llvm::SmallVectorBase", ptr %3, i32 0, i32 0
  %5 = load ptr, ptr %4, align 8
  ret ptr %5
}

; Function Attrs: mustprogress nounwind uwtable
define linkonce_odr hidden void @_ZN4llvm14PointerIntPairIPN5clang4ExprELj2ENS1_16ExplicitSpecKindENS_21PointerLikeTypeTraitsIS3_EENS_18PointerIntPairInfoIS3_Lj2ES6_EEEC2ES3_S4_(ptr noundef nonnull align 8 dereferenceable(8) %0, ptr noundef %1, i32 noundef %2) unnamed_addr #0 comdat align 2 {
  %4 = alloca ptr, align 8
  %5 = alloca ptr, align 8
  %6 = alloca i32, align 4
  store ptr %0, ptr %4, align 8
  store ptr %1, ptr %5, align 8
  store i32 %2, ptr %6, align 4
  %7 = load ptr, ptr %4, align 8
  %8 = getelementptr inbounds nuw %"class.llvm::PointerIntPair.1183", ptr %7, i32 0, i32 0
  call void @_ZN4llvm6detail13PunnedPointerIPN5clang4ExprEEC2El(ptr noundef nonnull align 8 dereferenceable(8) %8, i64 noundef 0)
  %9 = load ptr, ptr %5, align 8
  %10 = load i32, ptr %6, align 4
  call void @_ZNR4llvm14PointerIntPairIPN5clang4ExprELj2ENS1_16ExplicitSpecKindENS_21PointerLikeTypeTraitsIS3_EENS_18PointerIntPairInfoIS3_Lj2ES6_EEE16setPointerAndIntES3_S4_(ptr noundef nonnull align 8 dereferenceable(8) %7, ptr noundef %9, i32 noundef %10)
  ret void
}

; Function Attrs: mustprogress nounwind uwtable
define linkonce_odr hidden noundef nonnull align 8 dereferenceable(8) ptr @_ZN4llvm25SmallVectorTemplateCommonImvEixEm(ptr noundef nonnull align 8 dereferenceable(16) %0, i64 noundef %1) #0 comdat align 2 {
  %3 = alloca ptr, align 8
  %4 = alloca i64, align 8
  store ptr %0, ptr %3, align 8
  store i64 %1, ptr %4, align 8
  %5 = load ptr, ptr %3, align 8
  %6 = call noundef ptr @_ZN4llvm25SmallVectorTemplateCommonImvE5beginEv(ptr noundef nonnull align 8 dereferenceable(16) %5)
  %7 = load i64, ptr %4, align 8
  %8 = getelementptr inbounds i64, ptr %6, i64 %7
  ret ptr %8
}

; Function Attrs: mustprogress nounwind uwtable
define linkonce_odr hidden void @_ZN5clang17ExplicitSpecifierC2EPNS_4ExprENS_16ExplicitSpecKindE(ptr noundef nonnull align 8 dereferenceable(8) %0, ptr noundef %1, i32 noundef %2) unnamed_addr #0 comdat align 2 {
  %4 = alloca ptr, align 8
  %5 = alloca ptr, align 8
  %6 = alloca i32, align 4
  store ptr %0, ptr %4, align 8
  store ptr %1, ptr %5, align 8
  store i32 %2, ptr %6, align 4
  %7 = load ptr, ptr %4, align 8
  %8 = getelementptr inbounds nuw %"class.clang::ExplicitSpecifier", ptr %7, i32 0, i32 0
  %9 = load ptr, ptr %5, align 8
  %10 = load i32, ptr %6, align 4
  call void @_ZN4llvm14PointerIntPairIPN5clang4ExprELj2ENS1_16ExplicitSpecKindENS_21PointerLikeTypeTraitsIS3_EENS_18PointerIntPairInfoIS3_Lj2ES6_EEEC2ES3_S4_(ptr noundef nonnull align 8 dereferenceable(8) %8, ptr noundef %9, i32 noundef %10)
  ret void
}

; Function Attrs: mustprogress nounwind uwtable
define linkonce_odr hidden noundef ptr @_ZN5clang15ASTRecordReader8readExprEv(ptr noundef nonnull align 8 dereferenceable(560) %0) #0 comdat align 2 {
  %2 = alloca ptr, align 8
  store ptr %0, ptr %2, align 8
  %3 = load ptr, ptr %2, align 8
  %4 = getelementptr inbounds nuw %"class.clang::ASTRecordReader", ptr %3, i32 0, i32 1
  %5 = load ptr, ptr %4, align 8
  %6 = getelementptr inbounds nuw %"class.clang::ASTRecordReader", ptr %3, i32 0, i32 2
  %7 = load ptr, ptr %6, align 8
  %8 = call noundef ptr @_ZN5clang9ASTReader8ReadExprERNS_13serialization10ModuleFileE(ptr noundef nonnull align 8 dereferenceable(15968) %5, ptr noundef nonnull align 8 dereferenceable(3464) %7)
  ret ptr %8
}

; Function Attrs: mustprogress nounwind uwtable
define linkonce_odr hidden noundef i64 @_ZN5clang15ASTRecordReader7readIntEv(ptr noundef nonnull align 8 dereferenceable(560) %0) #0 comdat align 2 {
  %2 = alloca ptr, align 8
  store ptr %0, ptr %2, align 8
  %3 = load ptr, ptr %2, align 8
  %4 = getelementptr inbounds nuw %"class.clang::ASTRecordReader", ptr %3, i32 0, i32 4
  %5 = getelementptr inbounds nuw %"class.clang::ASTRecordReader", ptr %3, i32 0, i32 3
  %6 = load i32, ptr %5, align 8
  %7 = add i32 %6, 1
  store i32 %7, ptr %5, align 8
  %8 = zext i32 %6 to i64
  %9 = call noundef nonnull align 8 dereferenceable(8) ptr @_ZN4llvm25SmallVectorTemplateCommonImvEixEm(ptr noundef nonnull align 8 dereferenceable(16) %4, i64 noundef %8)
  %10 = load i64, ptr %9, align 8
  ret i64 %10
}

; Function Attrs: mustprogress nounwind uwtable
define linkonce_odr hidden void @_ZN5clang17CXXConversionDecl20setExplicitSpecifierENS_17ExplicitSpecifierE(ptr noundef nonnull align 8 dereferenceable(176) %0, i64 %1) #0 comdat align 2 {
  %3 = alloca %"class.clang::ExplicitSpecifier", align 8
  %4 = alloca ptr, align 8
  %5 = getelementptr inbounds nuw %"class.clang::ExplicitSpecifier", ptr %3, i32 0, i32 0
  %6 = getelementptr inbounds nuw %"class.llvm::PointerIntPair.1183", ptr %5, i32 0, i32 0
  %7 = getelementptr inbounds nuw %"struct.llvm::detail::PunnedPointer.1184", ptr %6, i32 0, i32 0
  store i64 %1, ptr %7, align 8
  store ptr %0, ptr %4, align 8
  %8 = load ptr, ptr %4, align 8
  %9 = getelementptr inbounds nuw %"class.clang::CXXConversionDecl", ptr %8, i32 0, i32 1
  call void @llvm.memcpy.p0.p0.i64(ptr align 8 %9, ptr align 8 %3, i64 8, i1 false)
  ret void
}

; Function Attrs: mustprogress nounwind uwtable
define linkonce_odr hidden i64 @_ZN5clang15ASTRecordReader16readExplicitSpecEv(ptr noundef nonnull align 8 dereferenceable(560) %0) #0 comdat align 2 {
  %2 = alloca %"class.clang::ExplicitSpecifier", align 8
  %3 = alloca ptr, align 8
  %4 = alloca i64, align 8
  %5 = alloca i8, align 1
  store ptr %0, ptr %3, align 8
  %6 = load ptr, ptr %3, align 8
  %7 = call noundef i64 @_ZN5clang15ASTRecordReader7readIntEv(ptr noundef nonnull align 8 dereferenceable(560) %6)
  store i64 %7, ptr %4, align 8
  %8 = load i64, ptr %4, align 8
  %9 = and i64 %8, 1
  %10 = icmp ne i64 %9, 0
  %11 = zext i1 %10 to i8
  store i8 %11, ptr %5, align 1
  %12 = load i64, ptr %4, align 8
  %13 = lshr i64 %12, 1
  store i64 %13, ptr %4, align 8
  %14 = load i8, ptr %5, align 1
  %15 = trunc i8 %14 to i1
  br i1 %15, label %16, label %18

16:                                               ; preds = %1
  %17 = call noundef ptr @_ZN5clang15ASTRecordReader8readExprEv(ptr noundef nonnull align 8 dereferenceable(560) %6)
  br label %19

18:                                               ; preds = %1
  br label %19

19:                                               ; preds = %18, %16
  %20 = phi ptr [ %17, %16 ], [ null, %18 ]
  %21 = load i64, ptr %4, align 8
  %22 = trunc i64 %21 to i32
  call void @_ZN5clang17ExplicitSpecifierC2EPNS_4ExprENS_16ExplicitSpecKindE(ptr noundef nonnull align 8 dereferenceable(8) %2, ptr noundef %20, i32 noundef %22)
  %23 = getelementptr inbounds nuw %"class.clang::ExplicitSpecifier", ptr %2, i32 0, i32 0
  %24 = getelementptr inbounds nuw %"class.llvm::PointerIntPair.1183", ptr %23, i32 0, i32 0
  %25 = getelementptr inbounds nuw %"struct.llvm::detail::PunnedPointer.1184", ptr %24, i32 0, i32 0
  %26 = load i64, ptr %25, align 8
  ret i64 %26
}

; Function Attrs: mustprogress nounwind uwtable
define dso_local void @_ZN5clang13ASTDeclReader22VisitCXXConversionDeclEPNS_17CXXConversionDeclE(ptr noundef nonnull align 8 dereferenceable(89) %0, ptr noundef %1) #0 align 2 {
  %3 = alloca ptr, align 8
  %4 = alloca ptr, align 8
  %5 = alloca %"class.clang::ExplicitSpecifier", align 8
  store ptr %0, ptr %3, align 8
  store ptr %1, ptr %4, align 8
  %6 = load ptr, ptr %3, align 8
  %7 = load ptr, ptr %4, align 8
  %8 = getelementptr inbounds nuw %"class.clang::ASTDeclReader", ptr %6, i32 0, i32 2
  %9 = load ptr, ptr %8, align 8
  %10 = call i64 @_ZN5clang15ASTRecordReader16readExplicitSpecEv(ptr noundef nonnull align 8 dereferenceable(560) %9)
  %11 = getelementptr inbounds nuw %"class.clang::ExplicitSpecifier", ptr %5, i32 0, i32 0
  %12 = getelementptr inbounds nuw %"class.llvm::PointerIntPair.1183", ptr %11, i32 0, i32 0
  %13 = getelementptr inbounds nuw %"struct.llvm::detail::PunnedPointer.1184", ptr %12, i32 0, i32 0
  store i64 %10, ptr %13, align 8
  %14 = getelementptr inbounds nuw %"class.clang::ExplicitSpecifier", ptr %5, i32 0, i32 0
  %15 = getelementptr inbounds nuw %"class.llvm::PointerIntPair.1183", ptr %14, i32 0, i32 0
  %16 = getelementptr inbounds nuw %"struct.llvm::detail::PunnedPointer.1184", ptr %15, i32 0, i32 0
  %17 = load i64, ptr %16, align 8
  call void @_ZN5clang17CXXConversionDecl20setExplicitSpecifierENS_17ExplicitSpecifierE(ptr noundef nonnull align 8 dereferenceable(176) %7, i64 %17)
  %18 = load ptr, ptr %4, align 8
  call void @_ZN5clang13ASTDeclReader18VisitCXXMethodDeclEPNS_13CXXMethodDeclE(ptr noundef nonnull align 8 dereferenceable(89) %6, ptr noundef %18)
  ret void
}