; Function Attrs: mustprogress nounwind uwtable
define dso_local void @_ZN5clang13ASTDeclReader22VisitCXXConversionDeclEPNS_17CXXConversionDeclE(ptr noundef nonnull align 8 dereferenceable(89) %0, ptr noundef %1) local_unnamed_addr #1 align 2 {
  %3 = getelementptr inbounds nuw i8, ptr %0, i64 16
  %4 = load ptr, ptr %3, align 8
  %5 = getelementptr inbounds nuw i8, ptr %4, i64 32
  %6 = getelementptr inbounds nuw i8, ptr %4, i64 24
  %7 = load i32, ptr %6, align 8
  %8 = add i32 %7, 1
  store i32 %8, ptr %6, align 8
  %9 = zext i32 %7 to i64
  %10 = load ptr, ptr %5, align 8
  %11 = getelementptr inbounds i64, ptr %10, i64 %9
  %12 = load i64, ptr %11, align 8
  %13 = and i64 %12, 1
  %.not.i = icmp eq i64 %13, 0
  br i1 %.not.i, label %_ZN5clang15ASTRecordReader16readExplicitSpecEv.exit, label %14

14:                                               ; preds = %2
  %15 = getelementptr inbounds nuw i8, ptr %4, i64 8
  %16 = load ptr, ptr %15, align 8
  %17 = getelementptr inbounds nuw i8, ptr %4, i64 16
  %18 = load ptr, ptr %17, align 8
  %19 = tail call noundef ptr @_ZN5clang9ASTReader8ReadExprERNS_13serialization10ModuleFileE(ptr noundef nonnull align 8 dereferenceable(15968) %16, ptr noundef nonnull align 8 dereferenceable(3464) %18) #26
  %20 = ptrtoint ptr %19 to i64
  %21 = and i64 %20, -4
  br label %_ZN5clang15ASTRecordReader16readExplicitSpecEv.exit

_ZN5clang15ASTRecordReader16readExplicitSpecEv.exit: ; preds = %2, %14
  %22 = phi i64 [ %21, %14 ], [ 0, %2 ]
  %23 = lshr i64 %12, 1
  %24 = and i64 %23, 4294967295
  %25 = or i64 %22, %24
  %26 = getelementptr inbounds nuw i8, ptr %1, i64 168
  store i64 %25, ptr %26, align 8
  tail call void @_ZN5clang13ASTDeclReader18VisitCXXMethodDeclEPNS_13CXXMethodDeclE(ptr noundef nonnull align 8 dereferenceable(89) %0, ptr noundef nonnull %1)
  ret void
}